; Function Attrs: mustprogress uwtable
define void @_ZN6icu_7728DataBuilderCollationIterator20forwardNumCodePointsEiR10UErrorCode(ptr noundef nonnull align 8 captures(none) dereferenceable(828) %0, i32 noundef %1, ptr nonnull readnone align 4 captures(none) %2) unnamed_addr #6 align 2 {
  %4 = getelementptr inbounds nuw i8, ptr %0, i64 816
  %5 = load ptr, ptr %4, align 8, !tbaa !59
  %6 = getelementptr inbounds nuw i8, ptr %0, i64 824
  %7 = load i32, ptr %6, align 8, !tbaa !62
  %8 = tail call noundef i32 @_ZNK6icu_7713UnicodeString11moveIndex32Eii(ptr noundef nonnull align 8 dereferenceable(64) %5, i32 noundef %7, i32 noundef %1)
  store i32 %8, ptr %6, align 8, !tbaa !62
  ret void
}